target datalayout = "e-m:e-p270:32:32-p271:32:32-p272:64:64-i64:64-i128:128-f80:128-n8:16:32:64-S128"
target triple = "x86_64-pc-linux-gnu"

%"class.cv::tinyxml2::StrPair" = type { i32, ptr, ptr }
%"class.cv::tinyxml2::XMLNode" = type { ptr, ptr, ptr, %"class.cv::tinyxml2::StrPair", ptr, ptr, ptr, ptr, ptr }

@.str.6 = private unnamed_addr constant [3 x i8] c"%f\00", align 1

; Function Attrs: mustprogress nounwind uwtable
define hidden noundef zeroext i1 @_ZN2cv8tinyxml27XMLUtil7ToFloatEPKcPf(ptr noundef %0, ptr noundef %1) #0 align 2 {
  %3 = alloca i1, align 1
  %4 = alloca ptr, align 8
  %5 = alloca ptr, align 8
  store ptr %0, ptr %4, align 8, !tbaa !14
  store ptr %1, ptr %5, align 8, !tbaa !46
  %6 = load ptr, ptr %4, align 8, !tbaa !14
  %7 = load ptr, ptr %5, align 8, !tbaa !46
  %8 = call i32 (ptr, ptr, ...) @__isoc99_sscanf(ptr noundef %6, ptr noundef @.str.6, ptr noundef %7) #17
  %9 = icmp eq i32 %8, 1
  br i1 %9, label %10, label %11

10:                                               ; preds = %2
  store i1 true, ptr %3, align 1
  br label %12

11:                                               ; preds = %2
  store i1 false, ptr %3, align 1
  br label %12

12:                                               ; preds = %11, %10
  %13 = load i1, ptr %3, align 1
  ret i1 %13
}

; Function Attrs: mustprogress uwtable
define hidden noundef ptr @_ZNK2cv8tinyxml27XMLNode5ValueEv(ptr noundef nonnull align 8 dereferenceable(88) %0) #3 align 2 {
  %2 = alloca ptr, align 8
  store ptr %0, ptr %2, align 8, !tbaa !55
  %3 = load ptr, ptr %2, align 8
  %4 = getelementptr inbounds nuw %"class.cv::tinyxml2::XMLNode", ptr %3, i32 0, i32 3
  %5 = call noundef ptr @_ZN2cv8tinyxml27StrPair6GetStrEv(ptr noundef nonnull align 8 dereferenceable(24) %4)
  ret ptr %5
}

; Function Attrs: mustprogress nounwind uwtable
define linkonce_odr hidden noundef ptr @_ZNK2cv8tinyxml27XMLNode10FirstChildEv(ptr noundef nonnull align 8 dereferenceable(88) %0) #0 comdat align 2 {
  %2 = alloca ptr, align 8
  store ptr %0, ptr %2, align 8, !tbaa !55
  %3 = load ptr, ptr %2, align 8
  %4 = getelementptr inbounds nuw %"class.cv::tinyxml2::XMLNode", ptr %3, i32 0, i32 4
  %5 = load ptr, ptr %4, align 8, !tbaa !113
  ret ptr %5
}

; Function Attrs: mustprogress uwtable
define hidden noundef i32 @_ZNK2cv8tinyxml210XMLElement14QueryFloatTextEPf(ptr noundef nonnull align 8 dereferenceable(104) %0, ptr noundef %1) #3 align 2 {
  %3 = alloca i32, align 4
  %4 = alloca ptr, align 8
  %5 = alloca ptr, align 8
  %6 = alloca ptr, align 8
  %7 = alloca i32, align 4
  store ptr %0, ptr %4, align 8, !tbaa !121
  store ptr %1, ptr %5, align 8, !tbaa !46
  %8 = load ptr, ptr %4, align 8
  %9 = call noundef ptr @_ZNK2cv8tinyxml27XMLNode10FirstChildEv(ptr noundef nonnull align 8 dereferenceable(88) %8)
  %10 = icmp ne ptr %9, null
  br i1 %10, label %11, label %31

11:                                               ; preds = %2
  %12 = call noundef ptr @_ZNK2cv8tinyxml27XMLNode10FirstChildEv(ptr noundef nonnull align 8 dereferenceable(88) %8)
  %13 = load ptr, ptr %12, align 8, !tbaa !92
  %14 = getelementptr inbounds ptr, ptr %13, i64 7
  %15 = load ptr, ptr %14, align 8
  %16 = call noundef ptr %15(ptr noundef nonnull align 8 dereferenceable(88) %12)
  %17 = icmp ne ptr %16, null
  br i1 %17, label %18, label %31

18:                                               ; preds = %11
  call void @llvm.lifetime.start.p0(i64 8, ptr %6) #17
  %19 = call noundef ptr @_ZNK2cv8tinyxml27XMLNode10FirstChildEv(ptr noundef nonnull align 8 dereferenceable(88) %8)
  %20 = load ptr, ptr %19, align 8, !tbaa !92
  %21 = getelementptr inbounds ptr, ptr %20, i64 7
  %22 = load ptr, ptr %21, align 8
  %23 = call noundef ptr %22(ptr noundef nonnull align 8 dereferenceable(88) %19)
  %24 = call noundef ptr @_ZNK2cv8tinyxml27XMLNode5ValueEv(ptr noundef nonnull align 8 dereferenceable(88) %23)
  store ptr %24, ptr %6, align 8, !tbaa !14
  %25 = load ptr, ptr %6, align 8, !tbaa !14
  %26 = load ptr, ptr %5, align 8, !tbaa !46
  %27 = call noundef zeroext i1 @_ZN2cv8tinyxml27XMLUtil7ToFloatEPKcPf(ptr noundef %25, ptr noundef %26)
  br i1 %27, label %28, label %29

28:                                               ; preds = %18
  store i32 0, ptr %3, align 4
  store i32 1, ptr %7, align 4
  br label %30

29:                                               ; preds = %18
  store i32 18, ptr %3, align 4
  store i32 1, ptr %7, align 4
  br label %30

30:                                               ; preds = %29, %28
  call void @llvm.lifetime.end.p0(i64 8, ptr %6) #17
  br label %32

31:                                               ; preds = %11, %2
  store i32 19, ptr %3, align 4
  br label %32

32:                                               ; preds = %31, %30
  %33 = load i32, ptr %3, align 4
  ret i32 %33
}