; Function Attrs: mustprogress uwtable
define hidden noundef range(i32 0, 20) i32 @_ZNK2cv8tinyxml210XMLElement14QueryFloatTextEPf(ptr noundef nonnull readonly align 8 captures(none) dereferenceable(104) %0, ptr noundef %1) local_unnamed_addr #4 align 2 {
  %3 = getelementptr inbounds nuw i8, ptr %0, i64 48
  %4 = load ptr, ptr %3, align 8, !tbaa !97
  %.not = icmp eq ptr %4, null
  br i1 %.not, label %20, label %5

5:                                                ; preds = %2
  %6 = load ptr, ptr %4, align 8, !tbaa !39
  %7 = getelementptr inbounds nuw i8, ptr %6, i64 56
  %8 = load ptr, ptr %7, align 8
  %9 = tail call noundef ptr %8(ptr noundef nonnull align 8 dereferenceable(88) %4)
  %.not3 = icmp eq ptr %9, null
  br i1 %.not3, label %20, label %10

10:                                               ; preds = %5
  %11 = load ptr, ptr %3, align 8, !tbaa !97
  %12 = load ptr, ptr %11, align 8, !tbaa !39
  %13 = getelementptr inbounds nuw i8, ptr %12, i64 56
  %14 = load ptr, ptr %13, align 8
  %15 = tail call noundef ptr %14(ptr noundef nonnull align 8 dereferenceable(88) %11)
  %16 = getelementptr inbounds nuw i8, ptr %15, i64 24
  %17 = tail call noundef ptr @_ZN2cv8tinyxml27StrPair6GetStrEv(ptr noundef nonnull align 8 dereferenceable(24) %16)
  %18 = tail call i32 (ptr, ptr, ...) @__isoc99_sscanf(ptr noundef readonly %17, ptr noundef nonnull @.str.6, ptr noundef %1) #24
  %19 = icmp eq i32 %18, 1
  %. = select i1 %19, i32 0, i32 18
  br label %20

20:                                               ; preds = %2, %5, %10
  %.1 = phi i32 [ %., %10 ], [ 19, %5 ], [ 19, %2 ]
  ret i32 %.1
}